target datalayout = "e-m:e-p270:32:32-p271:32:32-p272:64:64-i64:64-i128:128-f80:128-n8:16:32:64-S128"
target triple = "x86_64-pc-linux-gnu"

%struct.msghdr = type { ptr, i32, ptr, i64, ptr, i64, i32 }
%struct.iovec = type { ptr, i64 }
%struct.cmsghdr = type { i64, i32, i32, [0 x i8] }

@.str.29 = private unnamed_addr constant [29 x i8] c"%s: failed to receive fd: %m\00", align 1
@__func__.receive_fd_over_socket = private unnamed_addr constant [23 x i8] c"receive_fd_over_socket\00", align 1
@.str.30 = private unnamed_addr constant [25 x i8] c"%s: CMSG_FIRSTHDR failed\00", align 1

; Function Attrs: nounwind uwtable
define dso_local i32 @receive_fd_over_socket(i32 noundef %0) #0 {
  %2 = alloca i32, align 4
  %3 = alloca i32, align 4
  %4 = alloca %struct.msghdr, align 8
  %5 = alloca ptr, align 8
  %6 = alloca i32, align 4
  %7 = alloca [256 x i8], align 16
  %8 = alloca i8, align 1
  %9 = alloca [1 x %struct.iovec], align 16
  %10 = alloca i32, align 4
  store i32 %0, ptr %3, align 4
  call void @llvm.lifetime.start.p0(i64 56, ptr %4) #10
  call void @llvm.memset.p0.i64(ptr align 8 %4, i8 0, i64 56, i1 false)
  call void @llvm.lifetime.start.p0(i64 8, ptr %5) #10
  call void @llvm.lifetime.start.p0(i64 4, ptr %6) #10
  call void @llvm.lifetime.start.p0(i64 256, ptr %7) #10
  call void @llvm.lifetime.start.p0(i64 1, ptr %8) #10
  call void @llvm.lifetime.start.p0(i64 16, ptr %9) #10
  %11 = getelementptr inbounds [1 x %struct.iovec], ptr %9, i64 0, i64 0
  %12 = getelementptr inbounds nuw %struct.iovec, ptr %11, i32 0, i32 0
  store ptr %8, ptr %12, align 16
  %13 = getelementptr inbounds [1 x %struct.iovec], ptr %9, i64 0, i64 0
  %14 = getelementptr inbounds nuw %struct.iovec, ptr %13, i32 0, i32 1
  store i64 1, ptr %14, align 8
  %15 = getelementptr inbounds [1 x %struct.iovec], ptr %9, i64 0, i64 0
  %16 = getelementptr inbounds nuw %struct.msghdr, ptr %4, i32 0, i32 2
  store ptr %15, ptr %16, align 8
  %17 = getelementptr inbounds nuw %struct.msghdr, ptr %4, i32 0, i32 3
  store i64 1, ptr %17, align 8
  %18 = getelementptr inbounds [256 x i8], ptr %7, i64 0, i64 0
  %19 = getelementptr inbounds nuw %struct.msghdr, ptr %4, i32 0, i32 4
  store ptr %18, ptr %19, align 8
  %20 = getelementptr inbounds nuw %struct.msghdr, ptr %4, i32 0, i32 5
  store i64 256, ptr %20, align 8
  %21 = load i32, ptr %3, align 4
  %22 = call i64 @recvmsg(i32 noundef %21, ptr noundef %4, i32 noundef 0)
  %23 = icmp slt i64 %22, 0
  br i1 %23, label %24, label %26

24:                                               ; preds = %1
  %25 = call i32 (ptr, ...) @error(ptr noundef @.str.29, ptr noundef @__func__.receive_fd_over_socket)
  store i32 -1, ptr %2, align 4
  store i32 1, ptr %10, align 4
  br label %45

26:                                               ; preds = %1
  %27 = getelementptr inbounds nuw %struct.msghdr, ptr %4, i32 0, i32 5
  %28 = load i64, ptr %27, align 8
  %29 = icmp uge i64 %28, 16
  br i1 %29, label %30, label %33

30:                                               ; preds = %26
  %31 = getelementptr inbounds nuw %struct.msghdr, ptr %4, i32 0, i32 4
  %32 = load ptr, ptr %31, align 8
  br label %34

33:                                               ; preds = %26
  br label %34

34:                                               ; preds = %33, %30
  %35 = phi ptr [ %32, %30 ], [ null, %33 ]
  store ptr %35, ptr %5, align 8
  %36 = load ptr, ptr %5, align 8
  %37 = icmp ne ptr %36, null
  br i1 %37, label %40, label %38

38:                                               ; preds = %34
  %39 = call i32 (ptr, ...) @error(ptr noundef @.str.30, ptr noundef @__func__.receive_fd_over_socket)
  store i32 -1, ptr %2, align 4
  store i32 1, ptr %10, align 4
  br label %45

40:                                               ; preds = %34
  %41 = load ptr, ptr %5, align 8
  %42 = getelementptr inbounds nuw %struct.cmsghdr, ptr %41, i32 0, i32 3
  %43 = getelementptr inbounds [0 x i8], ptr %42, i64 0, i64 0
  call void @llvm.memmove.p0.p0.i64(ptr align 4 %6, ptr align 8 %43, i64 4, i1 false)
  %44 = load i32, ptr %6, align 4
  store i32 %44, ptr %2, align 4
  store i32 1, ptr %10, align 4
  br label %45

45:                                               ; preds = %40, %38, %24
  call void @llvm.lifetime.end.p0(i64 16, ptr %9) #10
  call void @llvm.lifetime.end.p0(i64 1, ptr %8) #10
  call void @llvm.lifetime.end.p0(i64 256, ptr %7) #10
  call void @llvm.lifetime.end.p0(i64 4, ptr %6) #10
  call void @llvm.lifetime.end.p0(i64 8, ptr %5) #10
  call void @llvm.lifetime.end.p0(i64 56, ptr %4) #10
  %46 = load i32, ptr %2, align 4
  ret i32 %46
}