; Function Attrs: nounwind uwtable
define dso_local i32 @receive_fd_over_socket(i32 noundef %0) #0 {
  %2 = alloca %struct.msghdr, align 8
  %3 = alloca [256 x i8], align 16
  %4 = alloca i8, align 1
  %5 = alloca [1 x %struct.iovec], align 16
  call void @llvm.lifetime.start.p0(i64 56, ptr nonnull %2) #10
  call void @llvm.memset.p0.i64(ptr noundef nonnull align 8 dereferenceable(56) %2, i8 0, i64 56, i1 false)
  call void @llvm.lifetime.start.p0(i64 256, ptr nonnull %3) #10
  call void @llvm.lifetime.start.p0(i64 1, ptr nonnull %4) #10
  call void @llvm.lifetime.start.p0(i64 16, ptr nonnull %5) #10
  store ptr %4, ptr %5, align 16
  %6 = getelementptr inbounds nuw i8, ptr %5, i64 8
  store i64 1, ptr %6, align 8
  %7 = getelementptr inbounds nuw i8, ptr %2, i64 16
  store ptr %5, ptr %7, align 8
  %8 = getelementptr inbounds nuw i8, ptr %2, i64 24
  store i64 1, ptr %8, align 8
  %9 = getelementptr inbounds nuw i8, ptr %2, i64 32
  store ptr %3, ptr %9, align 8
  %10 = getelementptr inbounds nuw i8, ptr %2, i64 40
  store i64 256, ptr %10, align 8
  %11 = call i64 @recvmsg(i32 noundef %0, ptr noundef nonnull %2, i32 noundef 0) #10
  %12 = icmp slt i64 %11, 0
  br i1 %12, label %13, label %15

13:                                               ; preds = %1
  %14 = call i32 (ptr, ...) @error(ptr noundef nonnull @.str.29, ptr noundef nonnull @__func__.receive_fd_over_socket) #10
  br label %23

15:                                               ; preds = %1
  %16 = load i64, ptr %10, align 8
  %17 = icmp ult i64 %16, 16
  %18 = load ptr, ptr %9, align 8
  %.not5 = icmp eq ptr %18, null
  %.not = select i1 %17, i1 true, i1 %.not5
  br i1 %.not, label %19, label %21

19:                                               ; preds = %15
  %20 = call i32 (ptr, ...) @error(ptr noundef nonnull @.str.30, ptr noundef nonnull @__func__.receive_fd_over_socket) #10
  br label %23

21:                                               ; preds = %15
  %22 = getelementptr inbounds nuw i8, ptr %18, i64 16
  %.0.copyload = load i32, ptr %22, align 8
  br label %23

23:                                               ; preds = %21, %19, %13
  %.0 = phi i32 [ -1, %13 ], [ %.0.copyload, %21 ], [ -1, %19 ]
  call void @llvm.lifetime.end.p0(i64 16, ptr nonnull %5) #10
  call void @llvm.lifetime.end.p0(i64 1, ptr nonnull %4) #10
  call void @llvm.lifetime.end.p0(i64 256, ptr nonnull %3) #10
  call void @llvm.lifetime.end.p0(i64 56, ptr nonnull %2) #10
  ret i32 %.0
}